target datalayout = "e-m:e-p270:32:32-p271:32:32-p272:64:64-i64:64-i128:128-f80:128-n8:16:32:64-S128"
target triple = "x86_64-pc-linux-gnu"

%struct.PJconsts = type { ptr, ptr, ptr, ptr, ptr, ptr, ptr, ptr, ptr, ptr, ptr, ptr, i32, ptr, ptr, ptr, ptr, ptr, ptr, ptr, ptr, double, double, double, double, double, double, double, double, double, double, double, double, double, double, double, double, double, double, double, double, double, double, i32, i32, i32, i32, i32, i32, i32, i32, i32, i32, i32, ptr, ptr, ptr, ptr, ptr, ptr, double, double, double, double, double, double, double, double, double, double, double, i32, [7 x double], i32, ptr, ptr, double, double, i32, [4 x i8], %"class.std::shared_ptr", i8, double, i8, %"class.std::__cxx11::basic_string", %"class.std::__cxx11::basic_string", %"class.std::__cxx11::basic_string", i8, %"class.std::vector", i32, %"class.std::vector.3", i32, i8, i8, i8, ptr }
%"class.std::shared_ptr" = type { %"class.std::__shared_ptr" }
%"class.std::__shared_ptr" = type { ptr, %"class.std::__shared_count" }
%"class.std::__shared_count" = type { ptr }
%"class.std::__cxx11::basic_string" = type { %"struct.std::__cxx11::basic_string<char>::_Alloc_hider", i64, %union.anon }
%"struct.std::__cxx11::basic_string<char>::_Alloc_hider" = type { ptr }
%union.anon = type { i64, [8 x i8] }
%"class.std::vector" = type { %"struct.std::_Vector_base" }
%"struct.std::_Vector_base" = type { %"struct.std::_Vector_base<osgeo::proj::operation::GridDescription, std::allocator<osgeo::proj::operation::GridDescription>>::_Vector_impl" }
%"struct.std::_Vector_base<osgeo::proj::operation::GridDescription, std::allocator<osgeo::proj::operation::GridDescription>>::_Vector_impl" = type { %"struct.std::_Vector_base<osgeo::proj::operation::GridDescription, std::allocator<osgeo::proj::operation::GridDescription>>::_Vector_impl_data" }
%"struct.std::_Vector_base<osgeo::proj::operation::GridDescription, std::allocator<osgeo::proj::operation::GridDescription>>::_Vector_impl_data" = type { ptr, ptr, ptr }
%"class.std::vector.3" = type { %"struct.std::_Vector_base.4" }
%"struct.std::_Vector_base.4" = type { %"struct.std::_Vector_base<PJCoordOperation, std::allocator<PJCoordOperation>>::_Vector_impl" }
%"struct.std::_Vector_base<PJCoordOperation, std::allocator<PJCoordOperation>>::_Vector_impl" = type { %"struct.std::_Vector_base<PJCoordOperation, std::allocator<PJCoordOperation>>::_Vector_impl_data" }
%"struct.std::_Vector_base<PJCoordOperation, std::allocator<PJCoordOperation>>::_Vector_impl_data" = type { ptr, ptr, ptr }
%union.PROJVALUE = type { double }
%"struct.(anonymous namespace)::pj_healpix_data" = type { i32, i32, double, double, ptr }

@.str.3 = private unnamed_addr constant [14 x i8] c"inorth_square\00", align 1
@.str.4 = private unnamed_addr constant [14 x i8] c"isouth_square\00", align 1
@.str.5 = private unnamed_addr constant [61 x i8] c"Invalid value for north_square: it should be in [0,3] range.\00", align 1
@.str.6 = private unnamed_addr constant [61 x i8] c"Invalid value for south_square: it should be in [0,3] range.\00", align 1

; Function Attrs: mustprogress uwtable
define internal noundef ptr @_ZL26pj_healpix_data_destructorP8PJconstsi(ptr noundef %0, i32 noundef %1) #0 {
  %3 = alloca ptr, align 8
  %4 = alloca ptr, align 8
  %5 = alloca i32, align 4
  store ptr %0, ptr %4, align 8, !tbaa !3
  store i32 %1, ptr %5, align 4, !tbaa !58
  %6 = load ptr, ptr %4, align 8, !tbaa !3
  %7 = icmp eq ptr null, %6
  br i1 %7, label %8, label %9

8:                                                ; preds = %2
  store ptr null, ptr %3, align 8
  br label %27

9:                                                ; preds = %2
  %10 = load ptr, ptr %4, align 8, !tbaa !3
  %11 = getelementptr inbounds nuw %struct.PJconsts, ptr %10, i32 0, i32 11
  %12 = load ptr, ptr %11, align 8, !tbaa !43
  %13 = icmp eq ptr null, %12
  br i1 %13, label %14, label %18

14:                                               ; preds = %9
  %15 = load ptr, ptr %4, align 8, !tbaa !3
  %16 = load i32, ptr %5, align 4, !tbaa !58
  %17 = call noundef ptr @_Z21pj_default_destructorP8PJconstsi(ptr noundef %15, i32 noundef %16)
  store ptr %17, ptr %3, align 8
  br label %27

18:                                               ; preds = %9
  %19 = load ptr, ptr %4, align 8, !tbaa !3
  %20 = getelementptr inbounds nuw %struct.PJconsts, ptr %19, i32 0, i32 11
  %21 = load ptr, ptr %20, align 8, !tbaa !43
  %22 = getelementptr inbounds nuw %"struct.(anonymous namespace)::pj_healpix_data", ptr %21, i32 0, i32 4
  %23 = load ptr, ptr %22, align 8, !tbaa !53
  call void @free(ptr noundef %23) #10
  %24 = load ptr, ptr %4, align 8, !tbaa !3
  %25 = load i32, ptr %5, align 4, !tbaa !58
  %26 = call noundef ptr @_Z21pj_default_destructorP8PJconstsi(ptr noundef %24, i32 noundef %25)
  store ptr %26, ptr %3, align 8
  br label %27

27:                                               ; preds = %18, %14, %8
  %28 = load ptr, ptr %3, align 8
  ret ptr %28
}

; Function Attrs: mustprogress uwtable
define hidden noundef ptr @_Z37pj_projection_specific_setup_rhealpixP8PJconsts(ptr noundef %0) #0 {
  %2 = alloca ptr, align 8
  %3 = alloca ptr, align 8
  %4 = alloca ptr, align 8
  %5 = alloca i32, align 4
  %6 = alloca %union.PROJVALUE, align 8
  %7 = alloca %union.PROJVALUE, align 8
  store ptr %0, ptr %3, align 8, !tbaa !3
  call void @llvm.lifetime.start.p0(i64 8, ptr %4) #10
  %8 = call noalias ptr @calloc(i64 noundef 1, i64 noundef 32) #11
  store ptr %8, ptr %4, align 8, !tbaa !41
  %9 = load ptr, ptr %4, align 8, !tbaa !41
  %10 = icmp eq ptr null, %9
  br i1 %10, label %11, label %14

11:                                               ; preds = %1
  %12 = load ptr, ptr %3, align 8, !tbaa !3
  %13 = call noundef ptr @_Z21pj_default_destructorP8PJconstsi(ptr noundef %12, i32 noundef 4096)
  store ptr %13, ptr %2, align 8
  store i32 1, ptr %5, align 4
  br label %126

14:                                               ; preds = %1
  %15 = load ptr, ptr %4, align 8, !tbaa !41
  %16 = load ptr, ptr %3, align 8, !tbaa !3
  %17 = getelementptr inbounds nuw %struct.PJconsts, ptr %16, i32 0, i32 11
  store ptr %15, ptr %17, align 8, !tbaa !43
  %18 = load ptr, ptr %3, align 8, !tbaa !3
  %19 = getelementptr inbounds nuw %struct.PJconsts, ptr %18, i32 0, i32 19
  store ptr @_ZL26pj_healpix_data_destructorP8PJconstsi, ptr %19, align 8, !tbaa !44
  call void @llvm.lifetime.start.p0(i64 8, ptr %6) #10
  %20 = load ptr, ptr %3, align 8, !tbaa !3
  %21 = getelementptr inbounds nuw %struct.PJconsts, ptr %20, i32 0, i32 0
  %22 = load ptr, ptr %21, align 8, !tbaa !45
  %23 = load ptr, ptr %3, align 8, !tbaa !3
  %24 = getelementptr inbounds nuw %struct.PJconsts, ptr %23, i32 0, i32 3
  %25 = load ptr, ptr %24, align 8, !tbaa !46
  %26 = call i64 @_Z8pj_paramP6pj_ctxP8ARG_listPKc(ptr noundef %22, ptr noundef %25, ptr noundef @.str.3)
  %27 = getelementptr inbounds nuw %union.PROJVALUE, ptr %6, i32 0, i32 0
  store i64 %26, ptr %27, align 8
  %28 = load i32, ptr %6, align 8, !tbaa !47
  %29 = load ptr, ptr %4, align 8, !tbaa !41
  %30 = getelementptr inbounds nuw %"struct.(anonymous namespace)::pj_healpix_data", ptr %29, i32 0, i32 0
  store i32 %28, ptr %30, align 8, !tbaa !68
  call void @llvm.lifetime.end.p0(i64 8, ptr %6) #10
  call void @llvm.lifetime.start.p0(i64 8, ptr %7) #10
  %31 = load ptr, ptr %3, align 8, !tbaa !3
  %32 = getelementptr inbounds nuw %struct.PJconsts, ptr %31, i32 0, i32 0
  %33 = load ptr, ptr %32, align 8, !tbaa !45
  %34 = load ptr, ptr %3, align 8, !tbaa !3
  %35 = getelementptr inbounds nuw %struct.PJconsts, ptr %34, i32 0, i32 3
  %36 = load ptr, ptr %35, align 8, !tbaa !46
  %37 = call i64 @_Z8pj_paramP6pj_ctxP8ARG_listPKc(ptr noundef %33, ptr noundef %36, ptr noundef @.str.4)
  %38 = getelementptr inbounds nuw %union.PROJVALUE, ptr %7, i32 0, i32 0
  store i64 %37, ptr %38, align 8
  %39 = load i32, ptr %7, align 8, !tbaa !47
  %40 = load ptr, ptr %4, align 8, !tbaa !41
  %41 = getelementptr inbounds nuw %"struct.(anonymous namespace)::pj_healpix_data", ptr %40, i32 0, i32 1
  store i32 %39, ptr %41, align 4, !tbaa !69
  call void @llvm.lifetime.end.p0(i64 8, ptr %7) #10
  %42 = load ptr, ptr %4, align 8, !tbaa !41
  %43 = getelementptr inbounds nuw %"struct.(anonymous namespace)::pj_healpix_data", ptr %42, i32 0, i32 0
  %44 = load i32, ptr %43, align 8, !tbaa !68
  %45 = icmp slt i32 %44, 0
  br i1 %45, label %51, label %46

46:                                               ; preds = %14
  %47 = load ptr, ptr %4, align 8, !tbaa !41
  %48 = getelementptr inbounds nuw %"struct.(anonymous namespace)::pj_healpix_data", ptr %47, i32 0, i32 0
  %49 = load i32, ptr %48, align 8, !tbaa !68
  %50 = icmp sgt i32 %49, 3
  br i1 %50, label %51, label %55

51:                                               ; preds = %46, %14
  %52 = load ptr, ptr %3, align 8, !tbaa !3
  call void (ptr, ptr, ...) @_Z14proj_log_errorPK8PJconstsPKcz(ptr noundef %52, ptr noundef @.str.5)
  %53 = load ptr, ptr %3, align 8, !tbaa !3
  %54 = call noundef ptr @_ZL26pj_healpix_data_destructorP8PJconstsi(ptr noundef %53, i32 noundef 1027)
  store ptr %54, ptr %2, align 8
  store i32 1, ptr %5, align 4
  br label %126

55:                                               ; preds = %46
  %56 = load ptr, ptr %4, align 8, !tbaa !41
  %57 = getelementptr inbounds nuw %"struct.(anonymous namespace)::pj_healpix_data", ptr %56, i32 0, i32 1
  %58 = load i32, ptr %57, align 4, !tbaa !69
  %59 = icmp slt i32 %58, 0
  br i1 %59, label %65, label %60

60:                                               ; preds = %55
  %61 = load ptr, ptr %4, align 8, !tbaa !41
  %62 = getelementptr inbounds nuw %"struct.(anonymous namespace)::pj_healpix_data", ptr %61, i32 0, i32 1
  %63 = load i32, ptr %62, align 4, !tbaa !69
  %64 = icmp sgt i32 %63, 3
  br i1 %64, label %65, label %69

65:                                               ; preds = %60, %55
  %66 = load ptr, ptr %3, align 8, !tbaa !3
  call void (ptr, ptr, ...) @_Z14proj_log_errorPK8PJconstsPKcz(ptr noundef %66, ptr noundef @.str.6)
  %67 = load ptr, ptr %3, align 8, !tbaa !3
  %68 = call noundef ptr @_ZL26pj_healpix_data_destructorP8PJconstsi(ptr noundef %67, i32 noundef 1027)
  store ptr %68, ptr %2, align 8
  store i32 1, ptr %5, align 4
  br label %126

69:                                               ; preds = %60
  %70 = load ptr, ptr %3, align 8, !tbaa !3
  %71 = getelementptr inbounds nuw %struct.PJconsts, ptr %70, i32 0, i32 27
  %72 = load double, ptr %71, align 8, !tbaa !52
  %73 = fcmp une double %72, 0.000000e+00
  br i1 %73, label %74, label %119

74:                                               ; preds = %69
  %75 = load ptr, ptr %3, align 8, !tbaa !3
  %76 = getelementptr inbounds nuw %struct.PJconsts, ptr %75, i32 0, i32 27
  %77 = load double, ptr %76, align 8, !tbaa !52
  %78 = call noundef ptr @_Z10pj_authsetd(double noundef %77)
  %79 = load ptr, ptr %4, align 8, !tbaa !41
  %80 = getelementptr inbounds nuw %"struct.(anonymous namespace)::pj_healpix_data", ptr %79, i32 0, i32 4
  store ptr %78, ptr %80, align 8, !tbaa !53
  %81 = load ptr, ptr %4, align 8, !tbaa !41
  %82 = getelementptr inbounds nuw %"struct.(anonymous namespace)::pj_healpix_data", ptr %81, i32 0, i32 4
  %83 = load ptr, ptr %82, align 8, !tbaa !53
  %84 = icmp eq ptr null, %83
  br i1 %84, label %85, label %88

85:                                               ; preds = %74
  %86 = load ptr, ptr %3, align 8, !tbaa !3
  %87 = call noundef ptr @_ZL26pj_healpix_data_destructorP8PJconstsi(ptr noundef %86, i32 noundef 4096)
  store ptr %87, ptr %2, align 8
  store i32 1, ptr %5, align 4
  br label %126

88:                                               ; preds = %74
  %89 = load ptr, ptr %3, align 8, !tbaa !3
  %90 = getelementptr inbounds nuw %struct.PJconsts, ptr %89, i32 0, i32 26
  %91 = load double, ptr %90, align 8, !tbaa !54
  %92 = load ptr, ptr %3, align 8, !tbaa !3
  %93 = getelementptr inbounds nuw %struct.PJconsts, ptr %92, i32 0, i32 32
  %94 = load double, ptr %93, align 8, !tbaa !55
  %95 = call noundef double @_Z7pj_qsfnddd(double noundef 1.000000e+00, double noundef %91, double noundef %94)
  %96 = load ptr, ptr %4, align 8, !tbaa !41
  %97 = getelementptr inbounds nuw %"struct.(anonymous namespace)::pj_healpix_data", ptr %96, i32 0, i32 3
  store double %95, ptr %97, align 8, !tbaa !56
  %98 = load ptr, ptr %3, align 8, !tbaa !3
  %99 = getelementptr inbounds nuw %struct.PJconsts, ptr %98, i32 0, i32 21
  %100 = load double, ptr %99, align 8, !tbaa !57
  %101 = load ptr, ptr %4, align 8, !tbaa !41
  %102 = getelementptr inbounds nuw %"struct.(anonymous namespace)::pj_healpix_data", ptr %101, i32 0, i32 3
  %103 = load double, ptr %102, align 8, !tbaa !56
  %104 = fmul double 5.000000e-01, %103
  %105 = call double @sqrt(double noundef %104) #10, !tbaa !58
  %106 = fmul double %100, %105
  %107 = load ptr, ptr %3, align 8, !tbaa !3
  %108 = getelementptr inbounds nuw %struct.PJconsts, ptr %107, i32 0, i32 21
  store double %106, ptr %108, align 8, !tbaa !57
  %109 = load ptr, ptr %3, align 8, !tbaa !3
  %110 = getelementptr inbounds nuw %struct.PJconsts, ptr %109, i32 0, i32 21
  %111 = load double, ptr %110, align 8, !tbaa !57
  %112 = fdiv double 1.000000e+00, %111
  %113 = load ptr, ptr %3, align 8, !tbaa !3
  %114 = getelementptr inbounds nuw %struct.PJconsts, ptr %113, i32 0, i32 23
  store double %112, ptr %114, align 8, !tbaa !70
  %115 = load ptr, ptr %3, align 8, !tbaa !3
  %116 = getelementptr inbounds nuw %struct.PJconsts, ptr %115, i32 0, i32 13
  store ptr @_ZL18e_rhealpix_forward5PJ_LPP8PJconsts, ptr %116, align 8, !tbaa !59
  %117 = load ptr, ptr %3, align 8, !tbaa !3
  %118 = getelementptr inbounds nuw %struct.PJconsts, ptr %117, i32 0, i32 14
  store ptr @_ZL18e_rhealpix_inverse5PJ_XYP8PJconsts, ptr %118, align 8, !tbaa !60
  br label %124

119:                                              ; preds = %69
  %120 = load ptr, ptr %3, align 8, !tbaa !3
  %121 = getelementptr inbounds nuw %struct.PJconsts, ptr %120, i32 0, i32 13
  store ptr @_ZL18s_rhealpix_forward5PJ_LPP8PJconsts, ptr %121, align 8, !tbaa !59
  %122 = load ptr, ptr %3, align 8, !tbaa !3
  %123 = getelementptr inbounds nuw %struct.PJconsts, ptr %122, i32 0, i32 14
  store ptr @_ZL18s_rhealpix_inverse5PJ_XYP8PJconsts, ptr %123, align 8, !tbaa !60
  br label %124

124:                                              ; preds = %119, %88
  %125 = load ptr, ptr %3, align 8, !tbaa !3
  store ptr %125, ptr %2, align 8
  store i32 1, ptr %5, align 4
  br label %126

126:                                              ; preds = %124, %85, %65, %51, %11
  call void @llvm.lifetime.end.p0(i64 8, ptr %4) #10
  %127 = load ptr, ptr %2, align 8
  ret ptr %127
}