; Function Attrs: mustprogress uwtable
define hidden noundef ptr @_Z37pj_projection_specific_setup_rhealpixP8PJconsts(ptr noundef %0) local_unnamed_addr #0 {
  %2 = tail call noalias dereferenceable_or_null(32) ptr @calloc(i64 noundef 1, i64 noundef 32) #10
  %3 = icmp eq ptr %2, null
  br i1 %3, label %4, label %6

4:                                                ; preds = %1
  %5 = tail call noundef ptr @_Z21pj_default_destructorP8PJconstsi(ptr noundef %0, i32 noundef 4096)
  br label %67

6:                                                ; preds = %1
  %7 = getelementptr inbounds nuw i8, ptr %0, i64 88
  store ptr %2, ptr %7, align 8, !tbaa !40
  %8 = getelementptr inbounds nuw i8, ptr %0, i64 152
  store ptr @_ZL26pj_healpix_data_destructorP8PJconstsi, ptr %8, align 8, !tbaa !41
  %9 = load ptr, ptr %0, align 8, !tbaa !42
  %10 = getelementptr inbounds nuw i8, ptr %0, i64 24
  %11 = load ptr, ptr %10, align 8, !tbaa !43
  %12 = tail call i64 @_Z8pj_paramP6pj_ctxP8ARG_listPKc(ptr noundef %9, ptr noundef %11, ptr noundef nonnull @.str.3)
  %.sroa.01.0.extract.trunc = trunc i64 %12 to i32
  store i32 %.sroa.01.0.extract.trunc, ptr %2, align 8, !tbaa !60
  %13 = load ptr, ptr %0, align 8, !tbaa !42
  %14 = load ptr, ptr %10, align 8, !tbaa !43
  %15 = tail call i64 @_Z8pj_paramP6pj_ctxP8ARG_listPKc(ptr noundef %13, ptr noundef %14, ptr noundef nonnull @.str.4)
  %.sroa.0.0.extract.trunc = trunc i64 %15 to i32
  %16 = getelementptr inbounds nuw i8, ptr %2, i64 4
  store i32 %.sroa.0.0.extract.trunc, ptr %16, align 4, !tbaa !61
  %17 = load i32, ptr %2, align 8, !tbaa !60
  %or.cond = icmp ugt i32 %17, 3
  br i1 %or.cond, label %18, label %25

18:                                               ; preds = %6
  tail call void (ptr, ptr, ...) @_Z14proj_log_errorPK8PJconstsPKcz(ptr noundef nonnull %0, ptr noundef nonnull @.str.5)
  %19 = load ptr, ptr %7, align 8, !tbaa !40
  %20 = icmp eq ptr %19, null
  br i1 %20, label %_ZL26pj_healpix_data_destructorP8PJconstsi.exit, label %21

21:                                               ; preds = %18
  %22 = getelementptr inbounds nuw i8, ptr %19, i64 24
  %23 = load ptr, ptr %22, align 8, !tbaa !48
  tail call void @free(ptr noundef %23) #11
  br label %_ZL26pj_healpix_data_destructorP8PJconstsi.exit

_ZL26pj_healpix_data_destructorP8PJconstsi.exit:  ; preds = %18, %21
  %24 = tail call noundef ptr @_Z21pj_default_destructorP8PJconstsi(ptr noundef nonnull %0, i32 noundef 1027)
  br label %67

25:                                               ; preds = %6
  %or.cond43 = icmp ugt i32 %.sroa.0.0.extract.trunc, 3
  br i1 %or.cond43, label %26, label %33

26:                                               ; preds = %25
  tail call void (ptr, ptr, ...) @_Z14proj_log_errorPK8PJconstsPKcz(ptr noundef nonnull %0, ptr noundef nonnull @.str.6)
  %27 = load ptr, ptr %7, align 8, !tbaa !40
  %28 = icmp eq ptr %27, null
  br i1 %28, label %_ZL26pj_healpix_data_destructorP8PJconstsi.exit46, label %29

29:                                               ; preds = %26
  %30 = getelementptr inbounds nuw i8, ptr %27, i64 24
  %31 = load ptr, ptr %30, align 8, !tbaa !48
  tail call void @free(ptr noundef %31) #11
  br label %_ZL26pj_healpix_data_destructorP8PJconstsi.exit46

_ZL26pj_healpix_data_destructorP8PJconstsi.exit46: ; preds = %26, %29
  %32 = tail call noundef ptr @_Z21pj_default_destructorP8PJconstsi(ptr noundef nonnull %0, i32 noundef 1027)
  br label %67

33:                                               ; preds = %25
  %34 = getelementptr inbounds nuw i8, ptr %0, i64 216
  %35 = load double, ptr %34, align 8, !tbaa !47
  %36 = fcmp une double %35, 0.000000e+00
  br i1 %36, label %37, label %64

37:                                               ; preds = %33
  %38 = tail call noundef ptr @_Z10pj_authsetd(double noundef %35)
  %39 = getelementptr inbounds nuw i8, ptr %2, i64 24
  store ptr %38, ptr %39, align 8, !tbaa !48
  %40 = icmp eq ptr %38, null
  br i1 %40, label %41, label %48

41:                                               ; preds = %37
  %42 = load ptr, ptr %7, align 8, !tbaa !40
  %43 = icmp eq ptr %42, null
  br i1 %43, label %_ZL26pj_healpix_data_destructorP8PJconstsi.exit49, label %44

44:                                               ; preds = %41
  %45 = getelementptr inbounds nuw i8, ptr %42, i64 24
  %46 = load ptr, ptr %45, align 8, !tbaa !48
  tail call void @free(ptr noundef %46) #11
  br label %_ZL26pj_healpix_data_destructorP8PJconstsi.exit49

_ZL26pj_healpix_data_destructorP8PJconstsi.exit49: ; preds = %41, %44
  %47 = tail call noundef ptr @_Z21pj_default_destructorP8PJconstsi(ptr noundef nonnull %0, i32 noundef 4096)
  br label %67

48:                                               ; preds = %37
  %49 = getelementptr inbounds nuw i8, ptr %0, i64 208
  %50 = load double, ptr %49, align 8, !tbaa !49
  %51 = getelementptr inbounds nuw i8, ptr %0, i64 256
  %52 = load double, ptr %51, align 8, !tbaa !50
  %53 = tail call noundef double @_Z7pj_qsfnddd(double noundef 1.000000e+00, double noundef %50, double noundef %52)
  %54 = getelementptr inbounds nuw i8, ptr %2, i64 16
  store double %53, ptr %54, align 8, !tbaa !51
  %55 = getelementptr inbounds nuw i8, ptr %0, i64 168
  %56 = load double, ptr %55, align 8, !tbaa !52
  %57 = fmul double %53, 5.000000e-01
  %58 = tail call double @sqrt(double noundef %57) #11, !tbaa !53
  %59 = fmul double %56, %58
  store double %59, ptr %55, align 8, !tbaa !52
  %60 = fdiv double 1.000000e+00, %59
  %61 = getelementptr inbounds nuw i8, ptr %0, i64 184
  store double %60, ptr %61, align 8, !tbaa !62
  %62 = getelementptr inbounds nuw i8, ptr %0, i64 104
  store ptr @_ZL18e_rhealpix_forward5PJ_LPP8PJconsts, ptr %62, align 8, !tbaa !54
  %63 = getelementptr inbounds nuw i8, ptr %0, i64 112
  store ptr @_ZL18e_rhealpix_inverse5PJ_XYP8PJconsts, ptr %63, align 8, !tbaa !55
  br label %67

64:                                               ; preds = %33
  %65 = getelementptr inbounds nuw i8, ptr %0, i64 104
  store ptr @_ZL18s_rhealpix_forward5PJ_LPP8PJconsts, ptr %65, align 8, !tbaa !54
  %66 = getelementptr inbounds nuw i8, ptr %0, i64 112
  store ptr @_ZL18s_rhealpix_inverse5PJ_XYP8PJconsts, ptr %66, align 8, !tbaa !55
  br label %67

67:                                               ; preds = %48, %64, %_ZL26pj_healpix_data_destructorP8PJconstsi.exit49, %_ZL26pj_healpix_data_destructorP8PJconstsi.exit46, %_ZL26pj_healpix_data_destructorP8PJconstsi.exit, %4
  %.0 = phi ptr [ %5, %4 ], [ %24, %_ZL26pj_healpix_data_destructorP8PJconstsi.exit ], [ %32, %_ZL26pj_healpix_data_destructorP8PJconstsi.exit46 ], [ %47, %_ZL26pj_healpix_data_destructorP8PJconstsi.exit49 ], [ %0, %64 ], [ %0, %48 ]
  ret ptr %.0
}